target datalayout = "e-m:e-p270:32:32-p271:32:32-p272:64:64-i64:64-i128:128-f80:128-n8:16:32:64-S128"
target triple = "x86_64-pc-linux-gnu"

%"struct.std::atomic" = type { %"struct.std::__atomic_base" }
%"struct.std::__atomic_base" = type { ptr }
%"class.std::__cxx11::basic_string" = type { %"struct.std::__cxx11::basic_string<char>::_Alloc_hider", i64, %union.anon }
%"struct.std::__cxx11::basic_string<char>::_Alloc_hider" = type { ptr }
%union.anon = type { i64, [8 x i8] }
%"class.std::basic_string_view" = type { i64, ptr }
%"class.std::vector.68" = type { %"struct.std::_Vector_base.69" }
%"struct.std::_Vector_base.69" = type { %"struct.std::_Vector_base<std::function<grpc_core::ChannelArgs (grpc_core::ChannelArgs)>, std::allocator<std::function<grpc_core::ChannelArgs (grpc_core::ChannelArgs)>>>::_Vector_impl" }
%"struct.std::_Vector_base<std::function<grpc_core::ChannelArgs (grpc_core::ChannelArgs)>, std::allocator<std::function<grpc_core::ChannelArgs (grpc_core::ChannelArgs)>>>::_Vector_impl" = type { %"struct.std::_Vector_base<std::function<grpc_core::ChannelArgs (grpc_core::ChannelArgs)>, std::allocator<std::function<grpc_core::ChannelArgs (grpc_core::ChannelArgs)>>>::_Vector_impl_data" }
%"struct.std::_Vector_base<std::function<grpc_core::ChannelArgs (grpc_core::ChannelArgs)>, std::allocator<std::function<grpc_core::ChannelArgs (grpc_core::ChannelArgs)>>>::_Vector_impl_data" = type { ptr, ptr, ptr }
%"class.std::vector.78" = type { %"struct.std::_Vector_base.79" }
%"struct.std::_Vector_base.79" = type { %"struct.std::_Vector_base<std::unique_ptr<grpc_core::HandshakerFactory>, std::allocator<std::unique_ptr<grpc_core::HandshakerFactory>>>::_Vector_impl" }
%"struct.std::_Vector_base<std::unique_ptr<grpc_core::HandshakerFactory>, std::allocator<std::unique_ptr<grpc_core::HandshakerFactory>>>::_Vector_impl" = type { %"struct.std::_Vector_base<std::unique_ptr<grpc_core::HandshakerFactory>, std::allocator<std::unique_ptr<grpc_core::HandshakerFactory>>>::_Vector_impl_data" }
%"struct.std::_Vector_base<std::unique_ptr<grpc_core::HandshakerFactory>, std::allocator<std::unique_ptr<grpc_core::HandshakerFactory>>>::_Vector_impl_data" = type { ptr, ptr, ptr }
%"class.std::map.83" = type { %"class.std::_Rb_tree.84" }
%"class.std::_Rb_tree.84" = type { %"struct.std::_Rb_tree<std::basic_string_view<char>, std::pair<const std::basic_string_view<char>, std::unique_ptr<grpc_core::ChannelCredsFactory<grpc_channel_credentials>>>, std::_Select1st<std::pair<const std::basic_string_view<char>, std::unique_ptr<grpc_core::ChannelCredsFactory<grpc_channel_credentials>>>>, std::less<std::basic_string_view<char>>>::_Rb_tree_impl" }
%"struct.std::_Rb_tree<std::basic_string_view<char>, std::pair<const std::basic_string_view<char>, std::unique_ptr<grpc_core::ChannelCredsFactory<grpc_channel_credentials>>>, std::_Select1st<std::pair<const std::basic_string_view<char>, std::unique_ptr<grpc_core::ChannelCredsFactory<grpc_channel_credentials>>>>, std::less<std::basic_string_view<char>>>::_Rb_tree_impl" = type { [8 x i8], %"struct.std::_Rb_tree_header" }
%"struct.std::_Rb_tree_header" = type { %"struct.std::_Rb_tree_node_base", i64 }
%"struct.std::_Rb_tree_node_base" = type { i32, ptr, ptr, ptr }
%"class.std::vector.89" = type { %"struct.std::_Vector_base.90" }
%"struct.std::_Vector_base.90" = type { %"struct.std::_Vector_base<std::unique_ptr<grpc_core::ServiceConfigParser::Parser>, std::allocator<std::unique_ptr<grpc_core::ServiceConfigParser::Parser>>>::_Vector_impl" }
%"struct.std::_Vector_base<std::unique_ptr<grpc_core::ServiceConfigParser::Parser>, std::allocator<std::unique_ptr<grpc_core::ServiceConfigParser::Parser>>>::_Vector_impl" = type { %"struct.std::_Vector_base<std::unique_ptr<grpc_core::ServiceConfigParser::Parser>, std::allocator<std::unique_ptr<grpc_core::ServiceConfigParser::Parser>>>::_Vector_impl_data" }
%"struct.std::_Vector_base<std::unique_ptr<grpc_core::ServiceConfigParser::Parser>, std::allocator<std::unique_ptr<grpc_core::ServiceConfigParser::Parser>>>::_Vector_impl_data" = type { ptr, ptr, ptr }
%"struct.grpc_core::ResolverRegistry::State" = type { %"class.std::map.94", %"class.std::__cxx11::basic_string" }
%"class.std::map.94" = type { %"class.std::_Rb_tree.95" }
%"class.std::_Rb_tree.95" = type { %"struct.std::_Rb_tree<std::basic_string_view<char>, std::pair<const std::basic_string_view<char>, std::unique_ptr<grpc_core::ResolverFactory>>, std::_Select1st<std::pair<const std::basic_string_view<char>, std::unique_ptr<grpc_core::ResolverFactory>>>, std::less<std::basic_string_view<char>>>::_Rb_tree_impl" }
%"struct.std::_Rb_tree<std::basic_string_view<char>, std::pair<const std::basic_string_view<char>, std::unique_ptr<grpc_core::ResolverFactory>>, std::_Select1st<std::pair<const std::basic_string_view<char>, std::unique_ptr<grpc_core::ResolverFactory>>>, std::less<std::basic_string_view<char>>>::_Rb_tree_impl" = type { [8 x i8], %"struct.std::_Rb_tree_header" }
%"class.std::map.99" = type { %"class.std::_Rb_tree.100" }
%"class.std::_Rb_tree.100" = type { %"struct.std::_Rb_tree<std::basic_string_view<char>, std::pair<const std::basic_string_view<char>, std::unique_ptr<grpc_core::LoadBalancingPolicyFactory>>, std::_Select1st<std::pair<const std::basic_string_view<char>, std::unique_ptr<grpc_core::LoadBalancingPolicyFactory>>>, std::less<std::basic_string_view<char>>>::_Rb_tree_impl" }
%"struct.std::_Rb_tree<std::basic_string_view<char>, std::pair<const std::basic_string_view<char>, std::unique_ptr<grpc_core::LoadBalancingPolicyFactory>>, std::_Select1st<std::pair<const std::basic_string_view<char>, std::unique_ptr<grpc_core::LoadBalancingPolicyFactory>>>, std::less<std::basic_string_view<char>>>::_Rb_tree_impl" = type { [8 x i8], %"struct.std::_Rb_tree_header" }
%"class.std::vector.104" = type { %"struct.std::_Vector_base.105" }
%"struct.std::_Vector_base.105" = type { %"struct.std::_Vector_base<std::unique_ptr<grpc_core::ProxyMapperInterface>, std::allocator<std::unique_ptr<grpc_core::ProxyMapperInterface>>>::_Vector_impl" }
%"struct.std::_Vector_base<std::unique_ptr<grpc_core::ProxyMapperInterface>, std::allocator<std::unique_ptr<grpc_core::ProxyMapperInterface>>>::_Vector_impl" = type { %"struct.std::_Vector_base<std::unique_ptr<grpc_core::ProxyMapperInterface>, std::allocator<std::unique_ptr<grpc_core::ProxyMapperInterface>>>::_Vector_impl_data" }
%"struct.std::_Vector_base<std::unique_ptr<grpc_core::ProxyMapperInterface>, std::allocator<std::unique_ptr<grpc_core::ProxyMapperInterface>>>::_Vector_impl_data" = type { ptr, ptr, ptr }
%"class.std::map.109" = type { %"class.std::_Rb_tree.110" }
%"class.std::_Rb_tree.110" = type { %"struct.std::_Rb_tree<std::basic_string_view<char>, std::pair<const std::basic_string_view<char>, std::unique_ptr<grpc_core::CertificateProviderFactory>>, std::_Select1st<std::pair<const std::basic_string_view<char>, std::unique_ptr<grpc_core::CertificateProviderFactory>>>, std::less<std::basic_string_view<char>>>::_Rb_tree_impl" }
%"struct.std::_Rb_tree<std::basic_string_view<char>, std::pair<const std::basic_string_view<char>, std::unique_ptr<grpc_core::CertificateProviderFactory>>, std::_Select1st<std::pair<const std::basic_string_view<char>, std::unique_ptr<grpc_core::CertificateProviderFactory>>>, std::less<std::basic_string_view<char>>>::_Rb_tree_impl" = type { [8 x i8], %"struct.std::_Rb_tree_header" }
%"class.grpc_core::CoreConfiguration" = type { %"class.grpc_core::ChannelArgsPreconditioning", %"class.grpc_core::ChannelInit", %"class.grpc_core::HandshakerRegistry", %"class.grpc_core::ChannelCredsRegistry", %"class.grpc_core::ServiceConfigParser", %"class.grpc_core::ResolverRegistry", %"class.grpc_core::LoadBalancingPolicyRegistry", %"class.grpc_core::ProxyMapperRegistry", %"class.grpc_core::CertificateProviderRegistry" }
%"class.grpc_core::ChannelArgsPreconditioning" = type { %"class.std::vector.68" }
%"class.grpc_core::ChannelInit" = type { [6 x %"struct.grpc_core::ChannelInit::StackConfig"] }
%"struct.grpc_core::ChannelInit::StackConfig" = type { %"class.std::vector.130", %"class.std::vector.130", %"class.std::vector.135" }
%"class.std::vector.130" = type { %"struct.std::_Vector_base.131" }
%"struct.std::_Vector_base.131" = type { %"struct.std::_Vector_base<grpc_core::ChannelInit::Filter, std::allocator<grpc_core::ChannelInit::Filter>>::_Vector_impl" }
%"struct.std::_Vector_base<grpc_core::ChannelInit::Filter, std::allocator<grpc_core::ChannelInit::Filter>>::_Vector_impl" = type { %"struct.std::_Vector_base<grpc_core::ChannelInit::Filter, std::allocator<grpc_core::ChannelInit::Filter>>::_Vector_impl_data" }
%"struct.std::_Vector_base<grpc_core::ChannelInit::Filter, std::allocator<grpc_core::ChannelInit::Filter>>::_Vector_impl_data" = type { ptr, ptr, ptr }
%"class.std::vector.135" = type { %"struct.std::_Vector_base.136" }
%"struct.std::_Vector_base.136" = type { %"struct.std::_Vector_base<absl::lts_20240722::AnyInvocable<void (grpc_core::ChannelStackBuilder &) const>, std::allocator<absl::lts_20240722::AnyInvocable<void (grpc_core::ChannelStackBuilder &) const>>>::_Vector_impl" }
%"struct.std::_Vector_base<absl::lts_20240722::AnyInvocable<void (grpc_core::ChannelStackBuilder &) const>, std::allocator<absl::lts_20240722::AnyInvocable<void (grpc_core::ChannelStackBuilder &) const>>>::_Vector_impl" = type { %"struct.std::_Vector_base<absl::lts_20240722::AnyInvocable<void (grpc_core::ChannelStackBuilder &) const>, std::allocator<absl::lts_20240722::AnyInvocable<void (grpc_core::ChannelStackBuilder &) const>>>::_Vector_impl_data" }
%"struct.std::_Vector_base<absl::lts_20240722::AnyInvocable<void (grpc_core::ChannelStackBuilder &) const>, std::allocator<absl::lts_20240722::AnyInvocable<void (grpc_core::ChannelStackBuilder &) const>>>::_Vector_impl_data" = type { ptr, ptr, ptr }
%"class.grpc_core::HandshakerRegistry" = type { [2 x %"class.std::vector.78"] }
%"class.grpc_core::ChannelCredsRegistry" = type { %"class.std::map.83" }
%"class.grpc_core::ServiceConfigParser" = type { %"class.std::vector.89" }
%"class.grpc_core::ResolverRegistry" = type { %"struct.grpc_core::ResolverRegistry::State" }
%"class.grpc_core::LoadBalancingPolicyRegistry" = type { %"class.std::map.99" }
%"class.grpc_core::ProxyMapperRegistry" = type { %"class.std::vector.104" }
%"class.grpc_core::CertificateProviderRegistry" = type { %"class.std::map.109" }

@_ZN9grpc_core17CoreConfiguration7config_E = external global %"struct.std::atomic", align 8
@.str.30 = private unnamed_addr constant [16 x i8] c"fault_injection\00", align 1

; Function Attrs: mustprogress nounwind uwtable
define linkonce_odr noundef i32 @_ZStanSt12memory_orderSt23__memory_order_modifier(i32 noundef %0, i32 noundef %1) #6 comdat {
  %3 = alloca i32, align 4
  %4 = alloca i32, align 4
  store i32 %0, ptr %3, align 4, !tbaa !200
  store i32 %1, ptr %4, align 4, !tbaa !204
  %5 = load i32, ptr %3, align 4, !tbaa !200
  %6 = load i32, ptr %4, align 4, !tbaa !204
  %7 = and i32 %5, %6
  ret i32 %7
}

; Function Attrs: noinline noreturn nounwind uwtable
define linkonce_odr hidden void @__clang_call_terminate(ptr noundef %0) #13 comdat {
  %2 = call ptr @__cxa_begin_catch(ptr %0) #3
  call void @_ZSt9terminatev() #21
  unreachable
}

; Function Attrs: mustprogress nounwind uwtable
define linkonce_odr noundef i64 @_ZNSt11char_traitsIcE6lengthEPKc(ptr noundef %0) #6 comdat align 2 {
  %2 = alloca ptr, align 8
  store ptr %0, ptr %2, align 8, !tbaa !13
  %3 = load ptr, ptr %2, align 8, !tbaa !13
  %4 = call i64 @strlen(ptr noundef %3) #3
  ret i64 %4
}

; Function Attrs: alwaysinline mustprogress nounwind uwtable
define linkonce_odr noundef ptr @_ZNKSt13__atomic_baseIPN9grpc_core17CoreConfigurationEE4loadESt12memory_order(ptr noundef nonnull align 8 dereferenceable(8) %0, i32 noundef %1) #15 comdat align 2 personality ptr @__gxx_personality_v0 {
  %3 = alloca ptr, align 8
  %4 = alloca i32, align 4
  %5 = alloca i32, align 4
  %6 = alloca ptr, align 8
  store ptr %0, ptr %3, align 8, !tbaa !202
  store i32 %1, ptr %4, align 4, !tbaa !200
  %7 = load ptr, ptr %3, align 8
  call void @llvm.lifetime.start.p0(i64 4, ptr %5) #3
  %8 = load i32, ptr %4, align 4, !tbaa !200
  %9 = invoke noundef i32 @_ZStanSt12memory_orderSt23__memory_order_modifier(i32 noundef %8, i32 noundef 65535)
          to label %10 unwind label %27

10:                                               ; preds = %2
  store i32 %9, ptr %5, align 4, !tbaa !200
  br label %11

11:                                               ; preds = %10
  br label %12

12:                                               ; preds = %11
  br label %13

13:                                               ; preds = %12
  br label %14

14:                                               ; preds = %13
  br label %15

15:                                               ; preds = %14
  br label %16

16:                                               ; preds = %15
  %17 = getelementptr inbounds nuw %"struct.std::__atomic_base", ptr %7, i32 0, i32 0
  %18 = load i32, ptr %4, align 4, !tbaa !200
  switch i32 %18, label %19 [
    i32 1, label %21
    i32 2, label %21
    i32 5, label %23
  ]

19:                                               ; preds = %16
  %20 = load atomic i64, ptr %17 monotonic, align 8
  store i64 %20, ptr %6, align 8
  br label %25

21:                                               ; preds = %16, %16
  %22 = load atomic i64, ptr %17 acquire, align 8
  store i64 %22, ptr %6, align 8
  br label %25

23:                                               ; preds = %16
  %24 = load atomic i64, ptr %17 seq_cst, align 8
  store i64 %24, ptr %6, align 8
  br label %25

25:                                               ; preds = %23, %21, %19
  %26 = load ptr, ptr %6, align 8, !tbaa !115
  call void @llvm.lifetime.end.p0(i64 4, ptr %5) #3
  ret ptr %26

27:                                               ; preds = %2
  %28 = landingpad { ptr, i32 }
          catch ptr null
  %29 = extractvalue { ptr, i32 } %28, 0
  call void @__clang_call_terminate(ptr %29) #21
  unreachable
}

; Function Attrs: mustprogress nounwind uwtable
define linkonce_odr void @_ZNSt17basic_string_viewIcSt11char_traitsIcEEC2EPKc(ptr noundef nonnull align 8 dereferenceable(16) %0, ptr noundef nonnull %1) unnamed_addr #6 comdat align 2 personality ptr @__gxx_personality_v0 {
  %3 = alloca ptr, align 8
  %4 = alloca ptr, align 8
  store ptr %0, ptr %3, align 8, !tbaa !63
  store ptr %1, ptr %4, align 8, !tbaa !13
  %5 = load ptr, ptr %3, align 8
  %6 = getelementptr inbounds nuw %"class.std::basic_string_view", ptr %5, i32 0, i32 0
  %7 = load ptr, ptr %4, align 8, !tbaa !13
  %8 = invoke noundef i64 @_ZNSt11char_traitsIcE6lengthEPKc(ptr noundef %7)
          to label %9 unwind label %12

9:                                                ; preds = %2
  store i64 %8, ptr %6, align 8, !tbaa !65
  %10 = getelementptr inbounds nuw %"class.std::basic_string_view", ptr %5, i32 0, i32 1
  %11 = load ptr, ptr %4, align 8, !tbaa !13
  store ptr %11, ptr %10, align 8, !tbaa !67
  ret void

12:                                               ; preds = %2
  %13 = landingpad { ptr, i32 }
          catch ptr null
  %14 = extractvalue { ptr, i32 } %13, 0
  call void @__clang_call_terminate(ptr %14) #21
  unreachable
}

; Function Attrs: mustprogress nounwind uwtable
define linkonce_odr noundef ptr @_ZNKSt6atomicIPN9grpc_core17CoreConfigurationEE4loadESt12memory_order(ptr noundef nonnull align 8 dereferenceable(8) %0, i32 noundef %1) #6 comdat align 2 {
  %3 = alloca ptr, align 8
  %4 = alloca i32, align 4
  store ptr %0, ptr %3, align 8, !tbaa !198
  store i32 %1, ptr %4, align 4, !tbaa !200
  %5 = load ptr, ptr %3, align 8
  %6 = getelementptr inbounds nuw %"struct.std::atomic", ptr %5, i32 0, i32 0
  %7 = load i32, ptr %4, align 4, !tbaa !200
  %8 = call noundef ptr @_ZNKSt13__atomic_baseIPN9grpc_core17CoreConfigurationEE4loadESt12memory_order(ptr noundef nonnull align 8 dereferenceable(8) %6, i32 noundef %7) #3
  ret ptr %8
}

; Function Attrs: mustprogress nounwind uwtable
define linkonce_odr { i64, ptr } @_ZN9grpc_core33FaultInjectionServiceConfigParser11parser_nameEv() #6 comdat align 2 {
  %1 = alloca %"class.std::basic_string_view", align 8
  call void @_ZNSt17basic_string_viewIcSt11char_traitsIcEEC2EPKc(ptr noundef nonnull align 8 dereferenceable(16) %1, ptr noundef @.str.30) #3
  %2 = load { i64, ptr }, ptr %1, align 8
  ret { i64, ptr } %2
}

; Function Attrs: mustprogress nounwind uwtable
define linkonce_odr noundef nonnull align 8 dereferenceable(24) ptr @_ZNK9grpc_core17CoreConfiguration21service_config_parserEv(ptr noundef nonnull align 8 dereferenceable(776) %0) #6 comdat align 2 {
  %2 = alloca ptr, align 8
  store ptr %0, ptr %2, align 8, !tbaa !115
  %3 = load ptr, ptr %2, align 8
  %4 = getelementptr inbounds nuw %"class.grpc_core::CoreConfiguration", ptr %3, i32 0, i32 4
  ret ptr %4
}

; Function Attrs: mustprogress uwtable
define linkonce_odr noundef nonnull align 8 dereferenceable(776) ptr @_ZN9grpc_core17CoreConfiguration3GetEv() #4 comdat align 2 {
  %1 = alloca ptr, align 8
  %2 = alloca ptr, align 8
  %3 = alloca i32, align 4
  call void @llvm.lifetime.start.p0(i64 8, ptr %2) #3
  %4 = call noundef ptr @_ZNKSt6atomicIPN9grpc_core17CoreConfigurationEE4loadESt12memory_order(ptr noundef nonnull align 8 dereferenceable(8) @_ZN9grpc_core17CoreConfiguration7config_E, i32 noundef 2) #3
  store ptr %4, ptr %2, align 8, !tbaa !115
  %5 = load ptr, ptr %2, align 8, !tbaa !115
  %6 = icmp ne ptr %5, null
  br i1 %6, label %7, label %9

7:                                                ; preds = %0
  %8 = load ptr, ptr %2, align 8, !tbaa !115
  store ptr %8, ptr %1, align 8
  store i32 1, ptr %3, align 4
  br label %11

9:                                                ; preds = %0
  %10 = call noundef nonnull align 8 dereferenceable(776) ptr @_ZN9grpc_core17CoreConfiguration19BuildNewAndMaybeSetEv()
  store ptr %10, ptr %1, align 8
  store i32 1, ptr %3, align 4
  br label %11

11:                                               ; preds = %9, %7
  call void @llvm.lifetime.end.p0(i64 8, ptr %2) #3
  %12 = load ptr, ptr %1, align 8
  ret ptr %12
}

; Function Attrs: mustprogress uwtable
define noundef i64 @_ZN9grpc_core33FaultInjectionServiceConfigParser11ParserIndexEv() #4 align 2 {
  %1 = alloca %"class.std::basic_string_view", align 8
  %2 = call noundef nonnull align 8 dereferenceable(776) ptr @_ZN9grpc_core17CoreConfiguration3GetEv()
  %3 = call noundef nonnull align 8 dereferenceable(24) ptr @_ZNK9grpc_core17CoreConfiguration21service_config_parserEv(ptr noundef nonnull align 8 dereferenceable(776) %2)
  %4 = call { i64, ptr } @_ZN9grpc_core33FaultInjectionServiceConfigParser11parser_nameEv()
  %5 = getelementptr inbounds nuw { i64, ptr }, ptr %1, i32 0, i32 0
  %6 = extractvalue { i64, ptr } %4, 0
  store i64 %6, ptr %5, align 8
  %7 = getelementptr inbounds nuw { i64, ptr }, ptr %1, i32 0, i32 1
  %8 = extractvalue { i64, ptr } %4, 1
  store ptr %8, ptr %7, align 8
  %9 = getelementptr inbounds nuw { i64, ptr }, ptr %1, i32 0, i32 0
  %10 = load i64, ptr %9, align 8
  %11 = getelementptr inbounds nuw { i64, ptr }, ptr %1, i32 0, i32 1
  %12 = load ptr, ptr %11, align 8
  %13 = call noundef i64 @_ZNK9grpc_core19ServiceConfigParser14GetParserIndexESt17basic_string_viewIcSt11char_traitsIcEE(ptr noundef nonnull align 8 dereferenceable(24) %3, i64 %10, ptr %12)
  ret i64 %13
}